; Function Attrs: nounwind uwtable
define internal noundef i32 @ssh_terminate_prteds() #0 {
  %1 = tail call i32 @prte_plm_base_prted_exit(i8 noundef zeroext 7) #18
  switch i32 %1, label %2 [
    i32 -43, label %4
    i32 0, label %4
  ]

2:                                                ; preds = %0
  %3 = tail call ptr @prte_strerror(i32 noundef %1) #18
  tail call void (i32, ptr, ...) @pmix_output(i32 noundef 0, ptr noundef nonnull @.str.6, ptr noundef %3, ptr noundef nonnull @.str.7, i32 noundef 1279) #18
  br label %4

4:                                                ; preds = %0, %0, %2
  ret i32 %1
}